#include <math.h>
#include <stdio.h>
#include <stdlib.h>
#include <string.h>

int main()
{
	int sz[300],szs[300],n,i=0,j=0,s,k=0;
	scanf("%d",&n);
	for(i=0;i<n;i++)
	{
	scanf("%d",&sz[i]);
	    if(i==0) s=1;
        for(j=0;j<i;j++)
        {
          if(sz[i]!=sz[j]) 
          {
          s=1;
          }
         else if(sz[i]==sz[j]) 
		 {
			 s=0;
			 break;
		 }
         }
          if(s==1) 
    {
szs[k]=sz[i];
k++;
     }  
            }
for(i=0;i<k-1;i++)
{
printf("%d,",szs[i]);
}
printf("%d",szs[k-1]);
return 0;
}