; ModuleID = 'source-C-CXX/52/1008.c'
source_filename = "source-C-CXX/52/1008.c"
target datalayout = "e-m:e-p270:32:32-p271:32:32-p272:64:64-i64:64-f80:128-n8:16:32:64-S128"
target triple = "x86_64-pc-linux-gnu"

@.str = private unnamed_addr constant [3 x i8] c"%d\00", align 1
@.str.1 = private unnamed_addr constant [4 x i8] c"%d,\00", align 1

; Function Attrs: nofree nounwind sspstrong uwtable
define dso_local i32 @main() local_unnamed_addr #0 {
  %1 = alloca [300 x i32], align 16
  %2 = alloca [300 x i32], align 16
  %3 = alloca i32, align 4
  %4 = bitcast [300 x i32]* %1 to i8*
  call void @llvm.lifetime.start.p0i8(i64 1200, i8* nonnull %4) #3
  %5 = bitcast [300 x i32]* %2 to i8*
  call void @llvm.lifetime.start.p0i8(i64 1200, i8* nonnull %5) #3
  %6 = bitcast i32* %3 to i8*
  call void @llvm.lifetime.start.p0i8(i64 4, i8* nonnull %6) #3
  %7 = call i32 (i8*, ...) @__isoc99_scanf(i8* getelementptr inbounds ([3 x i8], [3 x i8]* @.str, i64 0, i64 0), i32* nonnull %3)
  %8 = load i32, i32* %3, align 4, !tbaa !5
  %9 = icmp sgt i32 %8, 0
  br i1 %9, label %15, label %49

10:                                               ; preds = %36
  %11 = add i32 %37, -1
  %12 = icmp sgt i32 %37, 1
  br i1 %12, label %13, label %49

13:                                               ; preds = %10
  %14 = zext i32 %11 to i64
  br label %42

15:                                               ; preds = %0, %36
  %16 = phi i64 [ %38, %36 ], [ 0, %0 ]
  %17 = phi i32 [ %37, %36 ], [ 0, %0 ]
  %18 = getelementptr inbounds [300 x i32], [300 x i32]* %1, i64 0, i64 %16
  %19 = call i32 (i8*, ...) @__isoc99_scanf(i8* getelementptr inbounds ([3 x i8], [3 x i8]* @.str, i64 0, i64 0), i32* nonnull %18)
  %20 = icmp eq i64 %16, 0
  br i1 %20, label %31, label %21

21:                                               ; preds = %15
  %22 = load i32, i32* %18, align 4, !tbaa !5
  br label %25

23:                                               ; preds = %25
  %24 = icmp eq i64 %30, %16
  br i1 %24, label %31, label %25, !llvm.loop !9

25:                                               ; preds = %21, %23
  %26 = phi i64 [ 0, %21 ], [ %30, %23 ]
  %27 = getelementptr inbounds [300 x i32], [300 x i32]* %1, i64 0, i64 %26
  %28 = load i32, i32* %27, align 4, !tbaa !5
  %29 = icmp eq i32 %22, %28
  %30 = add nuw nsw i64 %26, 1
  br i1 %29, label %36, label %23

31:                                               ; preds = %23, %15
  %32 = load i32, i32* %18, align 4, !tbaa !5
  %33 = sext i32 %17 to i64
  %34 = getelementptr inbounds [300 x i32], [300 x i32]* %2, i64 0, i64 %33
  store i32 %32, i32* %34, align 4, !tbaa !5
  %35 = add nsw i32 %17, 1
  br label %36

36:                                               ; preds = %25, %31
  %37 = phi i32 [ %35, %31 ], [ %17, %25 ]
  %38 = add nuw nsw i64 %16, 1
  %39 = load i32, i32* %3, align 4, !tbaa !5
  %40 = sext i32 %39 to i64
  %41 = icmp slt i64 %38, %40
  br i1 %41, label %15, label %10, !llvm.loop !11

42:                                               ; preds = %13, %42
  %43 = phi i64 [ 0, %13 ], [ %47, %42 ]
  %44 = getelementptr inbounds [300 x i32], [300 x i32]* %2, i64 0, i64 %43
  %45 = load i32, i32* %44, align 4, !tbaa !5
  %46 = call i32 (i8*, ...) @printf(i8* nonnull dereferenceable(1) getelementptr inbounds ([4 x i8], [4 x i8]* @.str.1, i64 0, i64 0), i32 %45)
  %47 = add nuw nsw i64 %43, 1
  %48 = icmp eq i64 %47, %14
  br i1 %48, label %49, label %42, !llvm.loop !12

49:                                               ; preds = %42, %0, %10
  %50 = phi i32 [ %11, %10 ], [ -1, %0 ], [ %11, %42 ]
  %51 = sext i32 %50 to i64
  %52 = getelementptr inbounds [300 x i32], [300 x i32]* %2, i64 0, i64 %51
  %53 = load i32, i32* %52, align 4, !tbaa !5
  %54 = call i32 (i8*, ...) @printf(i8* nonnull dereferenceable(1) getelementptr inbounds ([3 x i8], [3 x i8]* @.str, i64 0, i64 0), i32 %53)
  call void @llvm.lifetime.end.p0i8(i64 4, i8* nonnull %6) #3
  call void @llvm.lifetime.end.p0i8(i64 1200, i8* nonnull %5) #3
  call void @llvm.lifetime.end.p0i8(i64 1200, i8* nonnull %4) #3
  ret i32 0
}

; Function Attrs: argmemonly mustprogress nofree nosync nounwind willreturn
declare void @llvm.lifetime.start.p0i8(i64 immarg, i8* nocapture) #1

; Function Attrs: nofree nounwind
declare noundef i32 @__isoc99_scanf(i8* nocapture noundef readonly, ...) local_unnamed_addr #2

; Function Attrs: nofree nounwind
declare noundef i32 @printf(i8* nocapture noundef readonly, ...) local_unnamed_addr #2

; Function Attrs: argmemonly mustprogress nofree nosync nounwind willreturn
declare void @llvm.lifetime.end.p0i8(i64 immarg, i8* nocapture) #1


!llvm.module.flags = !{!0, !1, !2, !3}
!llvm.ident = !{!4}

!0 = !{i32 1, !"wchar_size", i32 4}
!1 = !{i32 7, !"PIC Level", i32 2}
!2 = !{i32 7, !"PIE Level", i32 2}
!3 = !{i32 7, !"uwtable", i32 1}
!4 = !{!"clang version 13.0.0"}
!5 = !{!6, !6, i64 0}
!6 = !{!"int", !7, i64 0}
!7 = !{!"omnipotent char", !8, i64 0}
!8 = !{!"Simple C/C++ TBAA"}
!9 = distinct !{!9, !10}
!10 = !{!"llvm.loop.mustprogress"}
!11 = distinct !{!11, !10}
!12 = distinct !{!12, !10}
